target datalayout = "e-m:e-p270:32:32-p271:32:32-p272:64:64-i64:64-i128:128-f80:128-n8:16:32:64-S128"
target triple = "x86_64-unknown-linux-gnu"

%"class.google::protobuf::EnumValueDescriptor" = type { %"class.google::protobuf::internal::SymbolBaseN", %"class.google::protobuf::internal::SymbolBaseN.0", i32, ptr, ptr, ptr, ptr, ptr }
%"class.google::protobuf::internal::SymbolBaseN" = type { %"class.google::protobuf::internal::SymbolBase" }
%"class.google::protobuf::internal::SymbolBase" = type { i8 }
%"class.google::protobuf::internal::SymbolBaseN.0" = type { %"class.google::protobuf::internal::SymbolBase" }
%"class.absl::lts_20230802::log_internal::NullStream" = type { i8 }
%"class.google::protobuf::Reflection" = type { ptr, %"struct.google::protobuf::internal::ReflectionSchema", ptr, ptr, i32, %"class.absl::lts_20230802::once_flag", ptr }
%"struct.google::protobuf::internal::ReflectionSchema" = type { ptr, ptr, ptr, i32, i32, i32, i32, i32, i32, ptr, i32, i32, i32 }
%"class.absl::lts_20230802::once_flag" = type { %"struct.std::atomic.1" }
%"struct.std::atomic.1" = type { %"struct.std::__atomic_base.2" }
%"struct.std::__atomic_base.2" = type { i32 }
%"class.google::protobuf::FieldDescriptor" = type { %"class.google::protobuf::internal::SymbolBase", i8, i8, i8, i32, ptr, ptr, ptr, ptr, %union.anon.6, %union.anon.7, ptr, ptr, ptr, %union.anon.8 }
%union.anon.6 = type { ptr }
%union.anon.7 = type { ptr }
%union.anon.8 = type { i64 }
%"class.google::protobuf::RepeatedField" = type { i32, i32, ptr }

@.str.67 = private unnamed_addr constant [16 x i8] c"SetRepeatedEnum\00", align 1

; Function Attrs: mustprogress nounwind uwtable
define linkonce_odr hidden noundef ptr @_ZNK6google8protobuf13RepeatedFieldIiE15unsafe_elementsEv(ptr noundef nonnull align 8 dereferenceable(16) %this) #4 comdat align 2 {
entry:
  %this.addr = alloca ptr, align 8
  store ptr %this, ptr %this.addr, align 8
  %this1 = load ptr, ptr %this.addr, align 8
  %arena_or_elements_ = getelementptr inbounds %"class.google::protobuf::RepeatedField", ptr %this1, i32 0, i32 2
  %0 = load ptr, ptr %arena_or_elements_, align 8
  ret ptr %0
}

; Function Attrs: mustprogress nounwind uwtable
define linkonce_odr hidden noundef ptr @_ZNK6google8protobuf13RepeatedFieldIiE8elementsEv(ptr noundef nonnull align 8 dereferenceable(16) %this) #4 comdat align 2 {
entry:
  %this.addr = alloca ptr, align 8
  %ref.tmp = alloca %"class.absl::lts_20230802::log_internal::NullStream", align 1
  store ptr %this, ptr %this.addr, align 8
  %this1 = load ptr, ptr %this.addr, align 8
  br label %while.cond

while.cond:                                       ; preds = %while.body, %entry
  br i1 false, label %while.body, label %while.end

while.body:                                       ; preds = %while.cond
  %call = call noundef nonnull align 1 dereferenceable(1) ptr @_ZN4absl12lts_2023080212log_internal10NullStream14InternalStreamEv(ptr noundef nonnull align 1 dereferenceable(1) %ref.tmp)
  br label %while.cond, !llvm.loop !109

while.end:                                        ; preds = %while.cond
  %call2 = call noundef ptr @_ZNK6google8protobuf13RepeatedFieldIiE15unsafe_elementsEv(ptr noundef nonnull align 8 dereferenceable(16) %this1)
  ret ptr %call2
}

; Function Attrs: mustprogress nounwind uwtable
define linkonce_odr hidden noundef nonnull align 1 dereferenceable(1) ptr @_ZN4absl12lts_2023080212log_internal10NullStream14InternalStreamEv(ptr noundef nonnull align 1 dereferenceable(1) %this) #4 comdat align 2 {
entry:
  %this.addr = alloca ptr, align 8
  store ptr %this, ptr %this.addr, align 8
  %this1 = load ptr, ptr %this.addr, align 8
  ret ptr %this1
}

; Function Attrs: mustprogress nounwind uwtable
define linkonce_odr hidden void @_ZN6google8protobuf13RepeatedFieldIiE3SetEiRKi(ptr noundef nonnull align 8 dereferenceable(16) %this, i32 noundef %index, ptr noundef nonnull align 4 dereferenceable(4) %value) #4 comdat align 2 {
entry:
  %this.addr = alloca ptr, align 8
  %index.addr = alloca i32, align 4
  %value.addr = alloca ptr, align 8
  %ref.tmp = alloca %"class.absl::lts_20230802::log_internal::NullStream", align 1
  %ref.tmp4 = alloca %"class.absl::lts_20230802::log_internal::NullStream", align 1
  store ptr %this, ptr %this.addr, align 8
  store i32 %index, ptr %index.addr, align 4
  store ptr %value, ptr %value.addr, align 8
  %this1 = load ptr, ptr %this.addr, align 8
  br label %while.cond

while.cond:                                       ; preds = %while.body, %entry
  br i1 false, label %while.body, label %while.end

while.body:                                       ; preds = %while.cond
  %call = call noundef nonnull align 1 dereferenceable(1) ptr @_ZN4absl12lts_2023080212log_internal10NullStream14InternalStreamEv(ptr noundef nonnull align 1 dereferenceable(1) %ref.tmp)
  br label %while.cond, !llvm.loop !176

while.end:                                        ; preds = %while.cond
  br label %while.cond2

while.cond2:                                      ; preds = %while.body3, %while.end
  br i1 false, label %while.body3, label %while.end6

while.body3:                                      ; preds = %while.cond2
  %call5 = call noundef nonnull align 1 dereferenceable(1) ptr @_ZN4absl12lts_2023080212log_internal10NullStream14InternalStreamEv(ptr noundef nonnull align 1 dereferenceable(1) %ref.tmp4)
  br label %while.cond2, !llvm.loop !177

while.end6:                                       ; preds = %while.cond2
  %0 = load ptr, ptr %value.addr, align 8
  %1 = load i32, ptr %0, align 4
  %call7 = call noundef ptr @_ZNK6google8protobuf13RepeatedFieldIiE8elementsEv(ptr noundef nonnull align 8 dereferenceable(16) %this1)
  %2 = load i32, ptr %index.addr, align 4
  %idxprom = sext i32 %2 to i64
  %arrayidx = getelementptr inbounds i32, ptr %call7, i64 %idxprom
  store i32 %1, ptr %arrayidx, align 4
  ret void
}

; Function Attrs: mustprogress nounwind uwtable
define linkonce_odr hidden noundef ptr @_ZN6google8protobuf8internal18GetPointerAtOffsetINS1_12ExtensionSetEEEPT_Pvj(ptr noundef %message, i32 noundef %offset) #4 comdat {
entry:
  %message.addr = alloca ptr, align 8
  %offset.addr = alloca i32, align 4
  store ptr %message, ptr %message.addr, align 8
  store i32 %offset, ptr %offset.addr, align 4
  %0 = load ptr, ptr %message.addr, align 8
  %1 = load i32, ptr %offset.addr, align 4
  %idx.ext = zext i32 %1 to i64
  %add.ptr = getelementptr inbounds i8, ptr %0, i64 %idx.ext
  ret ptr %add.ptr
}

; Function Attrs: mustprogress nounwind uwtable
define linkonce_odr hidden noundef i32 @_ZNK6google8protobuf8internal16ReflectionSchema21GetExtensionSetOffsetEv(ptr noundef nonnull align 8 dereferenceable(72) %this) #4 comdat align 2 {
entry:
  %this.addr = alloca ptr, align 8
  store ptr %this, ptr %this.addr, align 8
  %this1 = load ptr, ptr %this.addr, align 8
  %extensions_offset_ = getelementptr inbounds %"struct.google::protobuf::internal::ReflectionSchema", ptr %this1, i32 0, i32 5
  %0 = load i32, ptr %extensions_offset_, align 8
  ret i32 %0
}

; Function Attrs: mustprogress uwtable
define linkonce_odr hidden void @_ZNK6google8protobuf10Reflection16SetRepeatedFieldIiEEvPNS0_7MessageEPKNS0_15FieldDescriptorEiT_(ptr noundef nonnull align 8 dereferenceable(112) %this, ptr noundef %message, ptr noundef %field, i32 noundef %index, i32 noundef %value) #5 comdat align 2 {
entry:
  %this.addr = alloca ptr, align 8
  %message.addr = alloca ptr, align 8
  %field.addr = alloca ptr, align 8
  %index.addr = alloca i32, align 4
  %value.addr = alloca i32, align 4
  store ptr %this, ptr %this.addr, align 8
  store ptr %message, ptr %message.addr, align 8
  store ptr %field, ptr %field.addr, align 8
  store i32 %index, ptr %index.addr, align 4
  store i32 %value, ptr %value.addr, align 4
  %this1 = load ptr, ptr %this.addr, align 8
  %0 = load ptr, ptr %message.addr, align 8
  %1 = load ptr, ptr %field.addr, align 8
  %call = call noundef ptr @_ZNK6google8protobuf10Reflection10MutableRawINS0_13RepeatedFieldIiEEEEPT_PNS0_7MessageEPKNS0_15FieldDescriptorE(ptr noundef nonnull align 8 dereferenceable(112) %this1, ptr noundef %0, ptr noundef %1)
  %2 = load i32, ptr %index.addr, align 4
  call void @_ZN6google8protobuf13RepeatedFieldIiE3SetEiRKi(ptr noundef nonnull align 8 dereferenceable(16) %call, i32 noundef %2, ptr noundef nonnull align 4 dereferenceable(4) %value.addr)
  ret void
}

; Function Attrs: mustprogress nounwind uwtable
define linkonce_odr hidden noundef i32 @_ZNK6google8protobuf15FieldDescriptor6numberEv(ptr noundef nonnull align 8 dereferenceable(88) %this) #4 comdat align 2 {
entry:
  %this.addr = alloca ptr, align 8
  store ptr %this, ptr %this.addr, align 8
  %this1 = load ptr, ptr %this.addr, align 8
  %number_ = getelementptr inbounds %"class.google::protobuf::FieldDescriptor", ptr %this1, i32 0, i32 4
  %0 = load i32, ptr %number_, align 4
  ret i32 %0
}

; Function Attrs: mustprogress uwtable
define noundef ptr @_ZNK6google8protobuf10Reflection19MutableExtensionSetEPNS0_7MessageE(ptr noundef nonnull align 8 dereferenceable(112) %this, ptr noundef %message) #5 align 2 {
entry:
  %this.addr = alloca ptr, align 8
  %message.addr = alloca ptr, align 8
  store ptr %this, ptr %this.addr, align 8
  store ptr %message, ptr %message.addr, align 8
  %this1 = load ptr, ptr %this.addr, align 8
  %0 = load ptr, ptr %message.addr, align 8
  %schema_ = getelementptr inbounds %"class.google::protobuf::Reflection", ptr %this1, i32 0, i32 1
  %call = call noundef i32 @_ZNK6google8protobuf8internal16ReflectionSchema21GetExtensionSetOffsetEv(ptr noundef nonnull align 8 dereferenceable(72) %schema_)
  %call2 = call noundef ptr @_ZN6google8protobuf8internal18GetPointerAtOffsetINS1_12ExtensionSetEEEPT_Pvj(ptr noundef %0, i32 noundef %call)
  ret ptr %call2
}

; Function Attrs: mustprogress nounwind uwtable
define linkonce_odr hidden noundef zeroext i1 @_ZNK6google8protobuf15FieldDescriptor12is_extensionEv(ptr noundef nonnull align 8 dereferenceable(88) %this) #4 comdat align 2 {
entry:
  %this.addr = alloca ptr, align 8
  store ptr %this, ptr %this.addr, align 8
  %this1 = load ptr, ptr %this.addr, align 8
  %is_extension_ = getelementptr inbounds %"class.google::protobuf::FieldDescriptor", ptr %this1, i32 0, i32 1
  %bf.load = load i8, ptr %is_extension_, align 1
  %bf.lshr = lshr i8 %bf.load, 3
  %bf.clear = and i8 %bf.lshr, 1
  %bf.cast = trunc i8 %bf.clear to i1
  ret i1 %bf.cast
}

; Function Attrs: mustprogress uwtable
define void @_ZNK6google8protobuf10Reflection28SetRepeatedEnumValueInternalEPNS0_7MessageEPKNS0_15FieldDescriptorEii(ptr noundef nonnull align 8 dereferenceable(112) %this, ptr noundef %message, ptr noundef %field, i32 noundef %index, i32 noundef %value) #5 align 2 {
entry:
  %this.addr = alloca ptr, align 8
  %message.addr = alloca ptr, align 8
  %field.addr = alloca ptr, align 8
  %index.addr = alloca i32, align 4
  %value.addr = alloca i32, align 4
  store ptr %this, ptr %this.addr, align 8
  store ptr %message, ptr %message.addr, align 8
  store ptr %field, ptr %field.addr, align 8
  store i32 %index, ptr %index.addr, align 4
  store i32 %value, ptr %value.addr, align 4
  %this1 = load ptr, ptr %this.addr, align 8
  %0 = load ptr, ptr %field.addr, align 8
  %call = call noundef zeroext i1 @_ZNK6google8protobuf15FieldDescriptor12is_extensionEv(ptr noundef nonnull align 8 dereferenceable(88) %0)
  br i1 %call, label %if.then, label %if.else

if.then:                                          ; preds = %entry
  %1 = load ptr, ptr %message.addr, align 8
  %call2 = call noundef ptr @_ZNK6google8protobuf10Reflection19MutableExtensionSetEPNS0_7MessageE(ptr noundef nonnull align 8 dereferenceable(112) %this1, ptr noundef %1)
  %2 = load ptr, ptr %field.addr, align 8
  %call3 = call noundef i32 @_ZNK6google8protobuf15FieldDescriptor6numberEv(ptr noundef nonnull align 8 dereferenceable(88) %2)
  %3 = load i32, ptr %index.addr, align 4
  %4 = load i32, ptr %value.addr, align 4
  call void @_ZN6google8protobuf8internal12ExtensionSet15SetRepeatedEnumEiii(ptr noundef nonnull align 8 dereferenceable(24) %call2, i32 noundef %call3, i32 noundef %3, i32 noundef %4)
  br label %if.end

if.else:                                          ; preds = %entry
  %5 = load ptr, ptr %message.addr, align 8
  %6 = load ptr, ptr %field.addr, align 8
  %7 = load i32, ptr %index.addr, align 4
  %8 = load i32, ptr %value.addr, align 4
  call void @_ZNK6google8protobuf10Reflection16SetRepeatedFieldIiEEvPNS0_7MessageEPKNS0_15FieldDescriptorEiT_(ptr noundef nonnull align 8 dereferenceable(112) %this1, ptr noundef %5, ptr noundef %6, i32 noundef %7, i32 noundef %8)
  br label %if.end

if.end:                                           ; preds = %if.else, %if.then
  ret void
}

; Function Attrs: mustprogress nounwind uwtable
define linkonce_odr hidden noundef i32 @_ZNK6google8protobuf19EnumValueDescriptor6numberEv(ptr noundef nonnull align 8 dereferenceable(48) %this) #4 comdat align 2 {
entry:
  %this.addr = alloca ptr, align 8
  store ptr %this, ptr %this.addr, align 8
  %this1 = load ptr, ptr %this.addr, align 8
  %number_ = getelementptr inbounds %"class.google::protobuf::EnumValueDescriptor", ptr %this1, i32 0, i32 2
  %0 = load i32, ptr %number_, align 4
  ret i32 %0
}

; Function Attrs: mustprogress nounwind uwtable
define linkonce_odr hidden noundef ptr @_ZNK6google8protobuf19EnumValueDescriptor4typeEv(ptr noundef nonnull align 8 dereferenceable(48) %this) #4 comdat align 2 {
entry:
  %this.addr = alloca ptr, align 8
  store ptr %this, ptr %this.addr, align 8
  %this1 = load ptr, ptr %this.addr, align 8
  %type_ = getelementptr inbounds %"class.google::protobuf::EnumValueDescriptor", ptr %this1, i32 0, i32 4
  %0 = load ptr, ptr %type_, align 8
  ret ptr %0
}

; Function Attrs: mustprogress uwtable
define void @_ZNK6google8protobuf10Reflection15SetRepeatedEnumEPNS0_7MessageEPKNS0_15FieldDescriptorEiPKNS0_19EnumValueDescriptorE(ptr noundef nonnull align 8 dereferenceable(112) %this, ptr noundef %message, ptr noundef %field, i32 noundef %index, ptr noundef %value) #5 align 2 {
entry:
  %this.addr = alloca ptr, align 8
  %message.addr = alloca ptr, align 8
  %field.addr = alloca ptr, align 8
  %index.addr = alloca i32, align 4
  %value.addr = alloca ptr, align 8
  store ptr %this, ptr %this.addr, align 8
  store ptr %message, ptr %message.addr, align 8
  store ptr %field, ptr %field.addr, align 8
  store i32 %index, ptr %index.addr, align 4
  store ptr %value, ptr %value.addr, align 8
  %this1 = load ptr, ptr %this.addr, align 8
  %0 = load ptr, ptr %value.addr, align 8
  %call = call noundef ptr @_ZNK6google8protobuf19EnumValueDescriptor4typeEv(ptr noundef nonnull align 8 dereferenceable(48) %0)
  %1 = load ptr, ptr %field.addr, align 8
  %call2 = call noundef ptr @_ZNK6google8protobuf15FieldDescriptor9enum_typeEv(ptr noundef nonnull align 8 dereferenceable(88) %1)
  %cmp = icmp ne ptr %call, %call2
  br i1 %cmp, label %if.then, label %if.end

if.then:                                          ; preds = %entry
  %descriptor_ = getelementptr inbounds %"class.google::protobuf::Reflection", ptr %this1, i32 0, i32 0
  %2 = load ptr, ptr %descriptor_, align 8
  %3 = load ptr, ptr %field.addr, align 8
  %4 = load ptr, ptr %value.addr, align 8
  call void @_ZN6google8protobuf12_GLOBAL__N_134ReportReflectionUsageEnumTypeErrorEPKNS0_10DescriptorEPKNS0_15FieldDescriptorEPKcPKNS0_19EnumValueDescriptorE(ptr noundef %2, ptr noundef %3, ptr noundef @.str.67, ptr noundef %4)
  br label %if.end

if.end:                                           ; preds = %if.then, %entry
  %5 = load ptr, ptr %message.addr, align 8
  %6 = load ptr, ptr %field.addr, align 8
  %7 = load i32, ptr %index.addr, align 4
  %8 = load ptr, ptr %value.addr, align 8
  %call3 = call noundef i32 @_ZNK6google8protobuf19EnumValueDescriptor6numberEv(ptr noundef nonnull align 8 dereferenceable(48) %8)
  call void @_ZNK6google8protobuf10Reflection28SetRepeatedEnumValueInternalEPNS0_7MessageEPKNS0_15FieldDescriptorEii(ptr noundef nonnull align 8 dereferenceable(112) %this1, ptr noundef %5, ptr noundef %6, i32 noundef %7, i32 noundef %call3)
  ret void
}