; Function Attrs: mustprogress uwtable
define void @_ZNK6google8protobuf10Reflection15SetRepeatedEnumEPNS0_7MessageEPKNS0_15FieldDescriptorEiPKNS0_19EnumValueDescriptorE(ptr noundef nonnull align 8 dereferenceable(112) %this, ptr noundef %message, ptr noundef nonnull %field, i32 noundef %index, ptr nocapture noundef readonly %value) local_unnamed_addr #4 align 2 {
entry:
  %type_.i = getelementptr inbounds i8, ptr %value, i64 16
  %0 = load ptr, ptr %type_.i, align 8
  %call2 = tail call noundef ptr @_ZNK6google8protobuf15FieldDescriptor9enum_typeEv(ptr noundef nonnull align 8 dereferenceable(88) %field)
  %cmp.not = icmp eq ptr %0, %call2
  br i1 %cmp.not, label %if.end, label %if.then

if.then:                                          ; preds = %entry
  %1 = load ptr, ptr %this, align 8
  tail call fastcc void @_ZN6google8protobuf12_GLOBAL__N_134ReportReflectionUsageEnumTypeErrorEPKNS0_10DescriptorEPKNS0_15FieldDescriptorEPKcPKNS0_19EnumValueDescriptorE(ptr noundef %1, ptr noundef nonnull %field, ptr noundef nonnull @.str.67, ptr noundef nonnull %value)
  unreachable

if.end:                                           ; preds = %entry
  %number_.i = getelementptr inbounds i8, ptr %value, i64 4
  %2 = load i32, ptr %number_.i, align 4
  %is_extension_.i.i = getelementptr inbounds i8, ptr %field, i64 1
  %bf.load.i.i = load i8, ptr %is_extension_.i.i, align 1
  %3 = and i8 %bf.load.i.i, 8
  %bf.cast.i.not.i = icmp eq i8 %3, 0
  br i1 %bf.cast.i.not.i, label %if.else.i, label %if.then.i

if.then.i:                                        ; preds = %if.end
  %extensions_offset_.i.i.i = getelementptr inbounds i8, ptr %this, i64 40
  %4 = load i32, ptr %extensions_offset_.i.i.i, align 8
  %idx.ext.i.i.i = zext i32 %4 to i64
  %add.ptr.i.i.i = getelementptr inbounds i8, ptr %message, i64 %idx.ext.i.i.i
  %number_.i.i = getelementptr inbounds i8, ptr %field, i64 4
  %5 = load i32, ptr %number_.i.i, align 4
  tail call void @_ZN6google8protobuf8internal12ExtensionSet15SetRepeatedEnumEiii(ptr noundef nonnull align 8 dereferenceable(24) %add.ptr.i.i.i, i32 noundef %5, i32 noundef %index, i32 noundef %2)
  br label %_ZNK6google8protobuf10Reflection28SetRepeatedEnumValueInternalEPNS0_7MessageEPKNS0_15FieldDescriptorEii.exit

if.else.i:                                        ; preds = %if.end
  %call.i.i = tail call noundef ptr @_ZNK6google8protobuf10Reflection10MutableRawINS0_13RepeatedFieldIiEEEEPT_PNS0_7MessageEPKNS0_15FieldDescriptorE(ptr noundef nonnull align 8 dereferenceable(112) %this, ptr noundef %message, ptr noundef nonnull %field)
  %arena_or_elements_.i.i.i.i.i = getelementptr inbounds i8, ptr %call.i.i, i64 8
  %6 = load ptr, ptr %arena_or_elements_.i.i.i.i.i, align 8
  %idxprom.i.i.i = sext i32 %index to i64
  %arrayidx.i.i.i = getelementptr inbounds i32, ptr %6, i64 %idxprom.i.i.i
  store i32 %2, ptr %arrayidx.i.i.i, align 4
  br label %_ZNK6google8protobuf10Reflection28SetRepeatedEnumValueInternalEPNS0_7MessageEPKNS0_15FieldDescriptorEii.exit

_ZNK6google8protobuf10Reflection28SetRepeatedEnumValueInternalEPNS0_7MessageEPKNS0_15FieldDescriptorEii.exit: ; preds = %if.then.i, %if.else.i
  ret void
}